target datalayout = "e-m:e-p270:32:32-p271:32:32-p272:64:64-i64:64-i128:128-f80:128-n8:16:32:64-S128"
target triple = "x86_64-pc-linux-gnu"

; Function Attrs: nounwind uwtable
define hidden i32 @dtls1_read_failed(ptr noundef %0, i32 noundef %1) #0 {
  %3 = alloca i32, align 4
  %4 = alloca ptr, align 8
  %5 = alloca i32, align 4
  store ptr %0, ptr %4, align 8, !tbaa !18
  store i32 %1, ptr %5, align 4, !tbaa !20
  %6 = load i32, ptr %5, align 4, !tbaa !20
  %7 = icmp sgt i32 %6, 0
  br i1 %7, label %8, label %9

8:                                                ; preds = %2
  store i32 1, ptr %3, align 4
  br label %26

9:                                                ; preds = %2
  %10 = load ptr, ptr %4, align 8, !tbaa !18
  %11 = call i32 @dtls1_is_timer_expired(ptr noundef %10)
  %12 = icmp ne i32 %11, 0
  br i1 %12, label %15, label %13

13:                                               ; preds = %9
  %14 = load i32, ptr %5, align 4, !tbaa !20
  store i32 %14, ptr %3, align 4
  br label %26

15:                                               ; preds = %9
  %16 = load ptr, ptr %4, align 8, !tbaa !18
  %17 = call i32 @SSL_in_init(ptr noundef %16)
  %18 = icmp ne i32 %17, 0
  br i1 %18, label %23, label %19

19:                                               ; preds = %15
  %20 = load ptr, ptr %4, align 8, !tbaa !18
  %21 = call ptr @SSL_get_rbio(ptr noundef %20)
  call void @BIO_set_flags(ptr noundef %21, i32 noundef 1)
  %22 = load i32, ptr %5, align 4, !tbaa !20
  store i32 %22, ptr %3, align 4
  br label %26

23:                                               ; preds = %15
  %24 = load ptr, ptr %4, align 8, !tbaa !18
  %25 = call i32 @DTLSv1_handle_timeout(ptr noundef %24)
  store i32 %25, ptr %3, align 4
  br label %26

26:                                               ; preds = %23, %19, %13, %8
  %27 = load i32, ptr %3, align 4
  ret i32 %27
}