; Function Attrs: nounwind uwtable
define hidden i32 @dtls1_read_failed(ptr noundef %0, i32 noundef %1) local_unnamed_addr #2 {
  %3 = icmp sgt i32 %1, 0
  br i1 %3, label %12, label %4

4:                                                ; preds = %2
  %5 = tail call i32 @dtls1_is_timer_expired(ptr noundef %0) #13
  %.not = icmp eq i32 %5, 0
  br i1 %.not, label %12, label %6

6:                                                ; preds = %4
  %7 = tail call i32 @SSL_in_init(ptr noundef %0) #13
  %.not8 = icmp eq i32 %7, 0
  br i1 %.not8, label %8, label %10

8:                                                ; preds = %6
  %9 = tail call ptr @SSL_get_rbio(ptr noundef %0) #13
  tail call void @BIO_set_flags(ptr noundef %9, i32 noundef 1) #13
  br label %12

10:                                               ; preds = %6
  %11 = tail call i32 @DTLSv1_handle_timeout(ptr noundef %0) #13
  br label %12

12:                                               ; preds = %4, %2, %10, %8
  %.0 = phi i32 [ %11, %10 ], [ %1, %8 ], [ 1, %2 ], [ %1, %4 ]
  ret i32 %.0
}